target datalayout = "e-m:e-p270:32:32-p271:32:32-p272:64:64-i64:64-i128:128-f80:128-n8:16:32:64-S128"
target triple = "x86_64-pc-linux-gnu"

%"class.Assimp::FBX::Token" = type <{ ptr, ptr, i32, [4 x i8], %union.anon, i32, [4 x i8] }>
%union.anon = type { i64 }

; Function Attrs: mustprogress nounwind uwtable
define hidden void @_ZN6Assimp3FBX5TokenC2EPKcS3_NS0_9TokenTypeEjj(ptr noundef nonnull align 8 dereferenceable(36) %0, ptr noundef %1, ptr noundef %2, i32 noundef %3, i32 noundef %4, i32 noundef %5) unnamed_addr #0 align 2 {
  %7 = alloca ptr, align 8
  %8 = alloca ptr, align 8
  %9 = alloca ptr, align 8
  %10 = alloca i32, align 4
  %11 = alloca i32, align 4
  %12 = alloca i32, align 4
  store ptr %0, ptr %7, align 8
  store ptr %1, ptr %8, align 8
  store ptr %2, ptr %9, align 8
  store i32 %3, ptr %10, align 4
  store i32 %4, ptr %11, align 4
  store i32 %5, ptr %12, align 4
  %13 = load ptr, ptr %7, align 8
  %14 = getelementptr inbounds nuw %"class.Assimp::FBX::Token", ptr %13, i32 0, i32 0
  %15 = load ptr, ptr %8, align 8
  store ptr %15, ptr %14, align 8
  %16 = getelementptr inbounds nuw %"class.Assimp::FBX::Token", ptr %13, i32 0, i32 1
  %17 = load ptr, ptr %9, align 8
  store ptr %17, ptr %16, align 8
  %18 = getelementptr inbounds nuw %"class.Assimp::FBX::Token", ptr %13, i32 0, i32 2
  %19 = load i32, ptr %10, align 4
  store i32 %19, ptr %18, align 8
  %20 = getelementptr inbounds nuw %"class.Assimp::FBX::Token", ptr %13, i32 0, i32 4
  %21 = load i32, ptr %11, align 4
  %22 = zext i32 %21 to i64
  store i64 %22, ptr %20, align 8
  %23 = getelementptr inbounds nuw %"class.Assimp::FBX::Token", ptr %13, i32 0, i32 5
  %24 = load i32, ptr %12, align 4
  store i32 %24, ptr %23, align 8
  ret void
}