; Function Attrs: mustprogress nofree norecurse nosync nounwind willreturn memory(argmem: write) uwtable
define hidden void @_ZN6Assimp3FBX5TokenC2EPKcS3_NS0_9TokenTypeEjj(ptr noundef nonnull writeonly align 8 captures(none) dereferenceable(36) initializes((0, 20), (24, 36)) %0, ptr noundef %1, ptr noundef %2, i32 noundef %3, i32 noundef %4, i32 noundef %5) unnamed_addr #0 align 2 {
  store ptr %1, ptr %0, align 8
  %7 = getelementptr inbounds nuw i8, ptr %0, i64 8
  store ptr %2, ptr %7, align 8
  %8 = getelementptr inbounds nuw i8, ptr %0, i64 16
  store i32 %3, ptr %8, align 8
  %9 = getelementptr inbounds nuw i8, ptr %0, i64 24
  %10 = zext i32 %4 to i64
  store i64 %10, ptr %9, align 8
  %11 = getelementptr inbounds nuw i8, ptr %0, i64 32
  store i32 %5, ptr %11, align 8
  ret void
}